(lp0
(S'Agriculture, Forestry, Fishing and Hunting'
p1
S'http://census.gov/cgi-bin/sssd/naics/naicsrch?chart_code=11&search=2012 NAICS Search'
p2
S'11'
p3
tp4
a(S'Mining, Quarrying, and Oil and Gas Extraction'
p5
S'http://census.gov/cgi-bin/sssd/naics/naicsrch?chart_code=21&search=2012 NAICS Search'
p6
S'21'
p7
tp8
a(S'Utilities'
p9
S'http://census.gov/cgi-bin/sssd/naics/naicsrch?chart_code=22&search=2012 NAICS Search'
p10
S'22'
p11
tp12
a(S'Construction'
p13
S'http://census.gov/cgi-bin/sssd/naics/naicsrch?chart_code=23&search=2012 NAICS Search'
p14
S'23'
p15
tp16
a(S'33 Manufacturing'
p17
S'http://census.gov/cgi-bin/sssd/naics/naicsrch?chart_code=31&search=2012 NAICS Search'
p18
S'31-33'
p19
tp20
a(S'Wholesale Trade'
p21
S'http://census.gov/cgi-bin/sssd/naics/naicsrch?chart_code=42&search=2012 NAICS Search'
p22
S'42'
p23
tp24
a(S'45 Retail Trade'
p25
S'http://census.gov/cgi-bin/sssd/naics/naicsrch?chart_code=44&search=2012 NAICS Search'
p26
S'44-45'
p27
tp28
a(S'49 Transportation and Warehousing'
p29
S'http://census.gov/cgi-bin/sssd/naics/naicsrch?chart_code=48&search=2012 NAICS Search'
p30
S'48-49'
p31
tp32
a(S'Information'
p33
S'http://census.gov/cgi-bin/sssd/naics/naicsrch?chart_code=51&search=2012 NAICS Search'
p34
S'51'
p35
tp36
a(S'Finance and Insurance'
p37
S'http://census.gov/cgi-bin/sssd/naics/naicsrch?chart_code=52&search=2012 NAICS Search'
p38
S'52'
p39
tp40
a(S'Real Estate and Rental and Leasing'
p41
S'http://census.gov/cgi-bin/sssd/naics/naicsrch?chart_code=53&search=2012 NAICS Search'
p42
S'53'
p43
tp44
a(S'Professional, Scientific, and Technical Services'
p45
S'http://census.gov/cgi-bin/sssd/naics/naicsrch?chart_code=54&search=2012 NAICS Search'
p46
S'54'
p47
tp48
a(S'Management of Companies and Enterprises'
p49
S'http://census.gov/cgi-bin/sssd/naics/naicsrch?chart_code=55&search=2012 NAICS Search'
p50
S'55'
p51
tp52
a(S'Administrative and Support and Waste Management and Remediation Services'
p53
S'http://census.gov/cgi-bin/sssd/naics/naicsrch?chart_code=56&search=2012 NAICS Search'
p54
S'56'
p55
tp56
a(S'Educational Services'
p57
S'http://census.gov/cgi-bin/sssd/naics/naicsrch?chart_code=61&search=2012 NAICS Search'
p58
S'61'
p59
tp60
a(S'Health Care and Social Assistance'
p61
S'http://census.gov/cgi-bin/sssd/naics/naicsrch?chart_code=62&search=2012 NAICS Search'
p62
S'62'
p63
tp64
a(S'Arts, Entertainment, and Recreation'
p65
S'http://census.gov/cgi-bin/sssd/naics/naicsrch?chart_code=71&search=2012 NAICS Search'
p66
S'71'
p67
tp68
a(S'Accommodation and Food Services'
p69
S'http://census.gov/cgi-bin/sssd/naics/naicsrch?chart_code=72&search=2012 NAICS Search'
p70
S'72'
p71
tp72
a(S'Other Services (except Public Administration)'
p73
S'http://census.gov/cgi-bin/sssd/naics/naicsrch?chart_code=81&search=2012 NAICS Search'
p74
S'81'
p75
tp76
a(S'Public Administration'
p77
S'http://census.gov/cgi-bin/sssd/naics/naicsrch?chart_code=92&search=2012 NAICS Search'
p78
S'92'
p79
tp80
a.